; Function Attrs: nounwind uwtable
define range(i32 -2, 1) i32 @inflateEnd(ptr noundef %0) local_unnamed_addr #2 {
  %2 = icmp eq ptr %0, null
  br i1 %2, label %22, label %3

3:                                                ; preds = %1
  %4 = getelementptr inbounds nuw i8, ptr %0, i64 56
  %5 = load ptr, ptr %4, align 8, !tbaa !3
  %6 = icmp eq ptr %5, null
  br i1 %6, label %22, label %7

7:                                                ; preds = %3
  %8 = getelementptr inbounds nuw i8, ptr %0, i64 72
  %9 = load ptr, ptr %8, align 8, !tbaa !35
  %10 = icmp eq ptr %9, null
  br i1 %10, label %22, label %11

11:                                               ; preds = %7
  %12 = getelementptr inbounds nuw i8, ptr %5, i64 64
  %13 = load ptr, ptr %12, align 8, !tbaa !33
  %.not = icmp eq ptr %13, null
  br i1 %.not, label %17, label %14

14:                                               ; preds = %11
  %15 = getelementptr inbounds nuw i8, ptr %0, i64 80
  %16 = load ptr, ptr %15, align 8, !tbaa !36
  tail call void %9(ptr noundef %16, ptr noundef nonnull %13) #10
  %.pre = load ptr, ptr %8, align 8, !tbaa !35
  %.pre16 = load ptr, ptr %4, align 8, !tbaa !3
  br label %17

17:                                               ; preds = %14, %11
  %18 = phi ptr [ %.pre16, %14 ], [ %5, %11 ]
  %19 = phi ptr [ %.pre, %14 ], [ %9, %11 ]
  %20 = getelementptr inbounds nuw i8, ptr %0, i64 80
  %21 = load ptr, ptr %20, align 8, !tbaa !36
  tail call void %19(ptr noundef %21, ptr noundef %18) #10
  store ptr null, ptr %4, align 8, !tbaa !3
  br label %22

22:                                               ; preds = %1, %3, %7, %17
  %.0 = phi i32 [ 0, %17 ], [ -2, %7 ], [ -2, %3 ], [ -2, %1 ]
  ret i32 %.0
}